; Function Attrs: nounwind uwtable
define ptr @l_Lean_Meta_SynthInstance_tryAnswer(ptr noundef %0, ptr noundef %1, ptr noundef %2, ptr noundef %3, ptr noundef %4, ptr noundef %5, ptr noundef %6, ptr noundef %7, ptr noundef %8, ptr noundef %9) local_unnamed_addr #1 {
  %11 = getelementptr inbounds nuw i8, ptr %2, i64 8
  %12 = load ptr, ptr %11, align 8, !tbaa !9
  %13 = ptrtoint ptr %12 to i64
  %14 = and i64 %13, 1
  %.not = icmp eq i64 %14, 0
  br i1 %.not, label %15, label %lean_inc.exit

15:                                               ; preds = %10
  %.val.i = load i32, ptr %12, align 4, !tbaa !4
  %16 = icmp sgt i32 %.val.i, 0
  br i1 %16, label %17, label %19, !prof !11

17:                                               ; preds = %15
  %18 = add nuw i32 %.val.i, 1
  store i32 %18, ptr %12, align 4, !tbaa !4
  br label %lean_inc.exit

19:                                               ; preds = %15
  %.not.i21 = icmp eq i32 %.val.i, 0
  br i1 %.not.i21, label %lean_inc.exit, label %20

20:                                               ; preds = %19
  tail call void @lean_inc_ref_cold(ptr noundef nonnull %12) #7
  br label %lean_inc.exit

lean_inc.exit:                                    ; preds = %20, %19, %17, %10
  %21 = ptrtoint ptr %2 to i64
  %22 = and i64 %21, 1
  %.not24 = icmp eq i64 %22, 0
  br i1 %.not24, label %23, label %lean_dec.exit

23:                                               ; preds = %lean_inc.exit
  %24 = load i32, ptr %2, align 4, !tbaa !4
  %25 = icmp sgt i32 %24, 1
  br i1 %25, label %26, label %28, !prof !11

26:                                               ; preds = %23
  %27 = add nsw i32 %24, -1
  store i32 %27, ptr %2, align 4, !tbaa !4
  br label %lean_dec.exit

28:                                               ; preds = %23
  %.not.i = icmp eq i32 %24, 0
  br i1 %.not.i, label %lean_dec.exit, label %29

29:                                               ; preds = %28
  tail call void @lean_dec_ref_cold(ptr noundef nonnull %2) #7
  br label %lean_dec.exit

lean_dec.exit:                                    ; preds = %29, %28, %26, %lean_inc.exit
  tail call void @lean_inc_heartbeat() #7
  %30 = tail call noalias ptr @mi_malloc_small(i64 noundef 32) #7
  %31 = icmp eq ptr %30, null
  br i1 %31, label %32, label %lean_alloc_closure.exit

32:                                               ; preds = %lean_dec.exit
  tail call void @lean_internal_panic_out_of_memory() #8
  unreachable

lean_alloc_closure.exit:                          ; preds = %lean_dec.exit
  %33 = getelementptr inbounds nuw i8, ptr %30, i64 4
  store i32 1, ptr %30, align 4, !tbaa !4
  store i32 -184549344, ptr %33, align 4
  %34 = getelementptr inbounds nuw i8, ptr %30, i64 8
  store ptr @l_Lean_Meta_SynthInstance_tryAnswer___lambda__1___boxed, ptr %34, align 8, !tbaa !9
  %35 = getelementptr inbounds nuw i8, ptr %30, i64 16
  store i16 8, ptr %35, align 8, !tbaa !15
  %36 = getelementptr inbounds nuw i8, ptr %30, i64 18
  store i16 1, ptr %36, align 2, !tbaa !15
  %37 = getelementptr inbounds nuw i8, ptr %30, i64 24
  store ptr %12, ptr %37, align 8, !tbaa !9
  tail call void @lean_inc_heartbeat() #7
  %38 = tail call noalias ptr @mi_malloc_small(i64 noundef 32) #7
  %39 = icmp eq ptr %38, null
  br i1 %39, label %40, label %lean_alloc_closure.exit22

40:                                               ; preds = %lean_alloc_closure.exit
  tail call void @lean_internal_panic_out_of_memory() #8
  unreachable

lean_alloc_closure.exit22:                        ; preds = %lean_alloc_closure.exit
  %41 = getelementptr inbounds nuw i8, ptr %38, i64 4
  store i32 1, ptr %38, align 4, !tbaa !4
  store i32 -184549344, ptr %41, align 4
  %42 = getelementptr inbounds nuw i8, ptr %38, i64 8
  store ptr @l_Lean_Meta_SynthInstance_tryAnswer___lambda__2___boxed, ptr %42, align 8, !tbaa !9
  %43 = getelementptr inbounds nuw i8, ptr %38, i64 16
  store i16 9, ptr %43, align 8, !tbaa !15
  %44 = getelementptr inbounds nuw i8, ptr %38, i64 18
  store i16 1, ptr %44, align 2, !tbaa !15
  %45 = getelementptr inbounds nuw i8, ptr %38, i64 24
  store ptr %1, ptr %45, align 8, !tbaa !9
  tail call void @lean_inc_heartbeat() #7
  %46 = tail call noalias ptr @mi_malloc_small(i64 noundef 40) #7
  %47 = icmp eq ptr %46, null
  br i1 %47, label %48, label %lean_alloc_closure.exit23

48:                                               ; preds = %lean_alloc_closure.exit22
  tail call void @lean_internal_panic_out_of_memory() #8
  unreachable

lean_alloc_closure.exit23:                        ; preds = %lean_alloc_closure.exit22
  %49 = getelementptr inbounds nuw i8, ptr %46, i64 4
  store i32 1, ptr %46, align 4, !tbaa !4
  store i32 -184549336, ptr %49, align 4
  %50 = getelementptr inbounds nuw i8, ptr %46, i64 8
  store ptr @l_ReaderT_bind___at_Lean_Meta_SynthInstance_newSubgoal___spec__6___rarg, ptr %50, align 8, !tbaa !9
  %51 = getelementptr inbounds nuw i8, ptr %46, i64 16
  store i16 9, ptr %51, align 8, !tbaa !15
  %52 = getelementptr inbounds nuw i8, ptr %46, i64 18
  store i16 2, ptr %52, align 2, !tbaa !15
  %53 = getelementptr inbounds nuw i8, ptr %46, i64 24
  store ptr %30, ptr %53, align 8, !tbaa !9
  %54 = getelementptr inbounds nuw i8, ptr %46, i64 32
  store ptr %38, ptr %54, align 8, !tbaa !9
  %55 = tail call ptr @l_Lean_Meta_withMCtx___at_Lean_Meta_SynthInstance_newSubgoal___spec__13___rarg(ptr noundef %0, ptr noundef nonnull %46, ptr noundef %3, ptr noundef %4, ptr noundef %5, ptr noundef %6, ptr noundef %7, ptr noundef %8, ptr noundef %9)
  ret ptr %55
}